; Function Attrs: nounwind uwtable
define noundef ptr @Llb4_Nonlin4SweepBadMonitor(ptr noundef readonly captures(none) %0, ptr noundef readonly captures(none) %1, ptr noundef %2) local_unnamed_addr #2 {
  %4 = getelementptr inbounds nuw i8, ptr %2, i64 752
  %5 = load i64, ptr %4, align 8, !tbaa !52
  store i64 0, ptr %4, align 8, !tbaa !52
  %6 = tail call ptr @Cudd_ReadOne(ptr noundef %2) #13
  tail call void @Cudd_Ref(ptr noundef %6) #13
  %7 = getelementptr i8, ptr %0, i64 112
  %.val2425 = load i32, ptr %7, align 8, !tbaa !48
  %8 = icmp sgt i32 %.val2425, 0
  br i1 %8, label %.lr.ph, label %.critedge

.lr.ph:                                           ; preds = %3
  %9 = getelementptr inbounds nuw i8, ptr %0, i64 24
  %10 = getelementptr i8, ptr %1, i64 8
  br label %11

11:                                               ; preds = %.lr.ph, %11
  %indvars.iv = phi i64 [ 0, %.lr.ph ], [ %indvars.iv.next, %11 ]
  %.027 = phi ptr [ %6, %.lr.ph ], [ %24, %11 ]
  %12 = load ptr, ptr %9, align 8, !tbaa !34
  %13 = getelementptr i8, ptr %12, i64 8
  %.val = load ptr, ptr %13, align 8, !tbaa !36
  %14 = getelementptr inbounds nuw ptr, ptr %.val, i64 %indvars.iv
  %15 = load ptr, ptr %14, align 8, !tbaa !37
  %.val22 = load ptr, ptr %10, align 8, !tbaa !26
  %16 = getelementptr i8, ptr %15, i64 36
  %.val23 = load i32, ptr %16, align 4, !tbaa !24
  %17 = sext i32 %.val23 to i64
  %18 = getelementptr inbounds i32, ptr %.val22, i64 %17
  %19 = load i32, ptr %18, align 4, !tbaa !25
  %20 = tail call ptr @Cudd_bddIthVar(ptr noundef %2, i32 noundef %19) #13
  %21 = ptrtoint ptr %20 to i64
  %22 = xor i64 %21, 1
  %23 = inttoptr i64 %22 to ptr
  %24 = tail call ptr @Cudd_bddAnd(ptr noundef %2, ptr noundef %.027, ptr noundef %23) #13
  tail call void @Cudd_Ref(ptr noundef %24) #13
  tail call void @Cudd_RecursiveDeref(ptr noundef %2, ptr noundef %.027) #13
  %indvars.iv.next = add nuw nsw i64 %indvars.iv, 1
  %.val24 = load i32, ptr %7, align 8, !tbaa !48
  %25 = sext i32 %.val24 to i64
  %26 = icmp slt i64 %indvars.iv.next, %25
  br i1 %26, label %11, label %.critedge, !llvm.loop !66

.critedge:                                        ; preds = %11, %3
  %.0.lcssa = phi ptr [ %6, %3 ], [ %24, %11 ]
  tail call void @Cudd_Deref(ptr noundef %.0.lcssa) #13
  store i64 %5, ptr %4, align 8, !tbaa !52
  %27 = ptrtoint ptr %.0.lcssa to i64
  %28 = xor i64 %27, 1
  %29 = inttoptr i64 %28 to ptr
  ret ptr %29
}